target datalayout = "e-m:e-p270:32:32-p271:32:32-p272:64:64-i64:64-i128:128-f80:128-n8:16:32:64-S128"
target triple = "x86_64-pc-linux-gnu"

@.str = private unnamed_addr constant [38 x i8] c"Cannot find the opening parenthesis.\0A\00", align 1
@.str.1 = private unnamed_addr constant [38 x i8] c"Cannot find the closing parenthesis.\0A\00", align 1
@.str.2 = private unnamed_addr constant [26 x i8] c"Wrong separating symbol.\0A\00", align 1
@.str.3 = private unnamed_addr constant [50 x i8] c"Different types of separating symbol ennPartsed.\0A\00", align 1

; Function Attrs: nounwind uwtable
define ptr @Io_ReadDsdFindEnd(ptr noundef %0) #0 {
  %2 = alloca ptr, align 8
  %3 = alloca ptr, align 8
  %4 = alloca ptr, align 8
  %5 = alloca i32, align 4
  store ptr %0, ptr %3, align 8
  store i32 0, ptr %5, align 4
  %6 = load ptr, ptr %3, align 8
  store ptr %6, ptr %4, align 8
  br label %7

7:                                                ; preds = %34, %1
  %8 = load ptr, ptr %4, align 8
  %9 = load i8, ptr %8, align 1
  %10 = icmp ne i8 %9, 0
  br i1 %10, label %11, label %37

11:                                               ; preds = %7
  %12 = load ptr, ptr %4, align 8
  %13 = load i8, ptr %12, align 1
  %14 = sext i8 %13 to i32
  %15 = icmp eq i32 %14, 40
  br i1 %15, label %16, label %19

16:                                               ; preds = %11
  %17 = load i32, ptr %5, align 4
  %18 = add nsw i32 %17, 1
  store i32 %18, ptr %5, align 4
  br label %28

19:                                               ; preds = %11
  %20 = load ptr, ptr %4, align 8
  %21 = load i8, ptr %20, align 1
  %22 = sext i8 %21 to i32
  %23 = icmp eq i32 %22, 41
  br i1 %23, label %24, label %27

24:                                               ; preds = %19
  %25 = load i32, ptr %5, align 4
  %26 = add nsw i32 %25, -1
  store i32 %26, ptr %5, align 4
  br label %27

27:                                               ; preds = %24, %19
  br label %28

28:                                               ; preds = %27, %16
  %29 = load i32, ptr %5, align 4
  %30 = icmp eq i32 %29, 0
  br i1 %30, label %31, label %33

31:                                               ; preds = %28
  %32 = load ptr, ptr %4, align 8
  store ptr %32, ptr %2, align 8
  br label %38

33:                                               ; preds = %28
  br label %34

34:                                               ; preds = %33
  %35 = load ptr, ptr %4, align 8
  %36 = getelementptr inbounds i8, ptr %35, i32 1
  store ptr %36, ptr %4, align 8
  br label %7, !llvm.loop !4

37:                                               ; preds = %7
  store ptr null, ptr %2, align 8
  br label %38

38:                                               ; preds = %37, %31
  %39 = load ptr, ptr %2, align 8
  ret ptr %39
}

; Function Attrs: nounwind uwtable
define i32 @Io_ReadDsdStrSplit(ptr noundef %0, ptr noundef %1, ptr noundef %2) #0 {
  %4 = alloca i32, align 4
  %5 = alloca ptr, align 8
  %6 = alloca ptr, align 8
  %7 = alloca ptr, align 8
  %8 = alloca i32, align 4
  %9 = alloca i32, align 4
  %10 = alloca i32, align 4
  %11 = alloca i32, align 4
  store ptr %0, ptr %5, align 8
  store ptr %1, ptr %6, align 8
  store ptr %2, ptr %7, align 8
  store i32 0, ptr %8, align 4
  store i32 0, ptr %9, align 4
  store i32 0, ptr %10, align 4
  store i32 0, ptr %11, align 4
  br label %12

12:                                               ; preds = %107, %3
  %13 = load ptr, ptr %5, align 8
  %14 = load ptr, ptr %6, align 8
  %15 = load i32, ptr %11, align 4
  %16 = add nsw i32 %15, 1
  store i32 %16, ptr %11, align 4
  %17 = sext i32 %15 to i64
  %18 = getelementptr inbounds ptr, ptr %14, i64 %17
  store ptr %13, ptr %18, align 8
  %19 = load ptr, ptr %5, align 8
  %20 = load i8, ptr %19, align 1
  %21 = sext i8 %20 to i32
  %22 = icmp eq i32 %21, 33
  br i1 %22, label %23, label %26

23:                                               ; preds = %12
  %24 = load ptr, ptr %5, align 8
  %25 = getelementptr inbounds i8, ptr %24, i32 1
  store ptr %25, ptr %5, align 8
  br label %26

26:                                               ; preds = %23, %12
  %27 = load ptr, ptr %5, align 8
  %28 = load i8, ptr %27, align 1
  %29 = sext i8 %28 to i32
  %30 = icmp sge i32 %29, 97
  br i1 %30, label %31, label %39

31:                                               ; preds = %26
  %32 = load ptr, ptr %5, align 8
  %33 = load i8, ptr %32, align 1
  %34 = sext i8 %33 to i32
  %35 = icmp sle i32 %34, 122
  br i1 %35, label %36, label %39

36:                                               ; preds = %31
  %37 = load ptr, ptr %5, align 8
  %38 = getelementptr inbounds i8, ptr %37, i32 1
  store ptr %38, ptr %5, align 8
  br label %84

39:                                               ; preds = %31, %26
  br label %40

40:                                               ; preds = %64, %39
  %41 = load ptr, ptr %5, align 8
  %42 = load i8, ptr %41, align 1
  %43 = sext i8 %42 to i32
  %44 = icmp sge i32 %43, 48
  br i1 %44, label %45, label %50

45:                                               ; preds = %40
  %46 = load ptr, ptr %5, align 8
  %47 = load i8, ptr %46, align 1
  %48 = sext i8 %47 to i32
  %49 = icmp sle i32 %48, 57
  br i1 %49, label %62, label %50

50:                                               ; preds = %45, %40
  %51 = load ptr, ptr %5, align 8
  %52 = load i8, ptr %51, align 1
  %53 = sext i8 %52 to i32
  %54 = icmp sge i32 %53, 65
  br i1 %54, label %55, label %60

55:                                               ; preds = %50
  %56 = load ptr, ptr %5, align 8
  %57 = load i8, ptr %56, align 1
  %58 = sext i8 %57 to i32
  %59 = icmp sle i32 %58, 70
  br label %60

60:                                               ; preds = %55, %50
  %61 = phi i1 [ false, %50 ], [ %59, %55 ]
  br label %62

62:                                               ; preds = %60, %45
  %63 = phi i1 [ true, %45 ], [ %61, %60 ]
  br i1 %63, label %64, label %67

64:                                               ; preds = %62
  %65 = load ptr, ptr %5, align 8
  %66 = getelementptr inbounds i8, ptr %65, i32 1
  store ptr %66, ptr %5, align 8
  br label %40, !llvm.loop !6

67:                                               ; preds = %62
  %68 = load ptr, ptr %5, align 8
  %69 = load i8, ptr %68, align 1
  %70 = sext i8 %69 to i32
  %71 = icmp ne i32 %70, 40
  br i1 %71, label %72, label %74

72:                                               ; preds = %67
  %73 = call i32 (ptr, ...) @printf(ptr noundef @.str)
  br label %131

74:                                               ; preds = %67
  %75 = load ptr, ptr %5, align 8
  %76 = call ptr @Io_ReadDsdFindEnd(ptr noundef %75)
  store ptr %76, ptr %5, align 8
  %77 = load ptr, ptr %5, align 8
  %78 = icmp eq ptr %77, null
  br i1 %78, label %79, label %81

79:                                               ; preds = %74
  %80 = call i32 (ptr, ...) @printf(ptr noundef @.str.1)
  br label %131

81:                                               ; preds = %74
  %82 = load ptr, ptr %5, align 8
  %83 = getelementptr inbounds i8, ptr %82, i32 1
  store ptr %83, ptr %5, align 8
  br label %84

84:                                               ; preds = %81, %36
  %85 = load ptr, ptr %5, align 8
  %86 = load i8, ptr %85, align 1
  %87 = sext i8 %86 to i32
  %88 = icmp eq i32 %87, 0
  br i1 %88, label %89, label %90

89:                                               ; preds = %84
  br label %131

90:                                               ; preds = %84
  %91 = load ptr, ptr %5, align 8
  %92 = load i8, ptr %91, align 1
  %93 = sext i8 %92 to i32
  %94 = icmp ne i32 %93, 42
  br i1 %94, label %95, label %107

95:                                               ; preds = %90
  %96 = load ptr, ptr %5, align 8
  %97 = load i8, ptr %96, align 1
  %98 = sext i8 %97 to i32
  %99 = icmp ne i32 %98, 43
  br i1 %99, label %100, label %107

100:                                              ; preds = %95
  %101 = load ptr, ptr %5, align 8
  %102 = load i8, ptr %101, align 1
  %103 = sext i8 %102 to i32
  %104 = icmp ne i32 %103, 44
  br i1 %104, label %105, label %107

105:                                              ; preds = %100
  %106 = call i32 (ptr, ...) @printf(ptr noundef @.str.2)
  br label %131

107:                                              ; preds = %100, %95, %90
  %108 = load ptr, ptr %5, align 8
  %109 = load i8, ptr %108, align 1
  %110 = sext i8 %109 to i32
  %111 = icmp eq i32 %110, 42
  %112 = zext i1 %111 to i32
  %113 = load i32, ptr %8, align 4
  %114 = or i32 %113, %112
  store i32 %114, ptr %8, align 4
  %115 = load ptr, ptr %5, align 8
  %116 = load i8, ptr %115, align 1
  %117 = sext i8 %116 to i32
  %118 = icmp eq i32 %117, 43
  %119 = zext i1 %118 to i32
  %120 = load i32, ptr %9, align 4
  %121 = or i32 %120, %119
  store i32 %121, ptr %9, align 4
  %122 = load ptr, ptr %5, align 8
  %123 = load i8, ptr %122, align 1
  %124 = sext i8 %123 to i32
  %125 = icmp eq i32 %124, 44
  %126 = zext i1 %125 to i32
  %127 = load i32, ptr %10, align 4
  %128 = or i32 %127, %126
  store i32 %128, ptr %10, align 4
  %129 = load ptr, ptr %5, align 8
  %130 = getelementptr inbounds i8, ptr %129, i32 1
  store ptr %130, ptr %5, align 8
  store i8 0, ptr %129, align 1
  br label %12

131:                                              ; preds = %105, %89, %79, %72
  %132 = load i32, ptr %8, align 4
  %133 = load i32, ptr %9, align 4
  %134 = add nsw i32 %132, %133
  %135 = load i32, ptr %10, align 4
  %136 = add nsw i32 %134, %135
  %137 = icmp sgt i32 %136, 1
  br i1 %137, label %138, label %140

138:                                              ; preds = %131
  %139 = call i32 (ptr, ...) @printf(ptr noundef @.str.3)
  store i32 0, ptr %4, align 4
  br label %144

140:                                              ; preds = %131
  %141 = load i32, ptr %9, align 4
  %142 = load ptr, ptr %7, align 8
  store i32 %141, ptr %142, align 4
  %143 = load i32, ptr %11, align 4
  store i32 %143, ptr %4, align 4
  br label %144

144:                                              ; preds = %140, %138
  %145 = load i32, ptr %4, align 4
  ret i32 %145
}