; Function Attrs: nofree nounwind uwtable
define i32 @Io_ReadDsdStrSplit(ptr noundef %0, ptr noundef writeonly captures(none) %1, ptr noundef writeonly captures(none) %2) local_unnamed_addr #1 {
  br label %4

4:                                                ; preds = %25, %3
  %indvars.iv = phi i64 [ %indvars.iv.next, %25 ], [ 0, %3 ]
  %.040 = phi ptr [ %35, %25 ], [ %0, %3 ]
  %.038 = phi i32 [ %28, %25 ], [ 0, %3 ]
  %.037 = phi i32 [ %31, %25 ], [ 0, %3 ]
  %.036 = phi i32 [ %34, %25 ], [ 0, %3 ]
  %indvars.iv.next = add nuw nsw i64 %indvars.iv, 1
  %5 = getelementptr inbounds nuw ptr, ptr %1, i64 %indvars.iv
  store ptr %.040, ptr %5, align 8
  %6 = load i8, ptr %.040, align 1
  %7 = icmp eq i8 %6, 33
  %spec.select.idx = zext i1 %7 to i64
  %spec.select = getelementptr inbounds nuw i8, ptr %.040, i64 %spec.select.idx
  %8 = load i8, ptr %spec.select, align 1
  %9 = add i8 %8, -97
  %or.cond = icmp ult i8 %9, 26
  br i1 %or.cond, label %Io_ReadDsdFindEnd.exit, label %.preheader56

.preheader56:                                     ; preds = %4
  %10 = add i8 %8, -48
  %or.cond5274 = icmp ult i8 %10, 10
  %11 = add i8 %8, -65
  %or.cond5375 = icmp ult i8 %11, 6
  %or.cond5576 = or i1 %or.cond5274, %or.cond5375
  br i1 %or.cond5576, label %.critedge, label %.critedge2

.critedge:                                        ; preds = %.preheader56, %.critedge
  %.377 = phi ptr [ %12, %.critedge ], [ %spec.select, %.preheader56 ]
  %12 = getelementptr inbounds nuw i8, ptr %.377, i64 1
  %.pr = load i8, ptr %12, align 1
  %13 = add i8 %.pr, -48
  %or.cond52 = icmp ult i8 %13, 10
  %14 = add i8 %.pr, -65
  %or.cond53 = icmp ult i8 %14, 6
  %or.cond55 = or i1 %or.cond52, %or.cond53
  br i1 %or.cond55, label %.critedge, label %.critedge2, !llvm.loop !6

.critedge2:                                       ; preds = %.critedge, %.preheader56
  %.lcssa = phi i8 [ %8, %.preheader56 ], [ %.pr, %.critedge ]
  %.3.lcssa = phi ptr [ %spec.select, %.preheader56 ], [ %12, %.critedge ]
  %.not = icmp eq i8 %.lcssa, 40
  br i1 %.not, label %.preheader, label %.loopexit.sink.split

.preheader:                                       ; preds = %.critedge2, %22
  %15 = phi i8 [ %.pre, %22 ], [ 40, %.critedge2 ]
  %.09.i = phi ptr [ %23, %22 ], [ %.3.lcssa, %.critedge2 ]
  %.0.i = phi i32 [ %.1.i, %22 ], [ 0, %.critedge2 ]
  switch i8 %15, label %20 [
    i8 0, label %.loopexit.sink.split
    i8 40, label %16
    i8 41, label %18
  ]

16:                                               ; preds = %.preheader
  %17 = add nsw i32 %.0.i, 1
  br label %20

18:                                               ; preds = %.preheader
  %19 = add nsw i32 %.0.i, -1
  br label %20

20:                                               ; preds = %18, %16, %.preheader
  %.1.i = phi i32 [ %17, %16 ], [ %19, %18 ], [ %.0.i, %.preheader ]
  %21 = icmp eq i32 %.1.i, 0
  br i1 %21, label %Io_ReadDsdFindEnd.exit, label %22

22:                                               ; preds = %20
  %23 = getelementptr inbounds nuw i8, ptr %.09.i, i64 1
  %.pre = load i8, ptr %23, align 1
  br label %.preheader, !llvm.loop !4

Io_ReadDsdFindEnd.exit:                           ; preds = %20, %4
  %.1.pn = phi ptr [ %spec.select, %4 ], [ %.09.i, %20 ]
  %.2 = getelementptr inbounds nuw i8, ptr %.1.pn, i64 1
  %24 = load i8, ptr %.2, align 1
  switch i8 %24, label %.loopexit.sink.split [
    i8 0, label %.loopexit
    i8 42, label %25
    i8 43, label %25
    i8 44, label %25
  ]

25:                                               ; preds = %Io_ReadDsdFindEnd.exit, %Io_ReadDsdFindEnd.exit, %Io_ReadDsdFindEnd.exit
  %26 = icmp eq i8 %24, 42
  %27 = zext i1 %26 to i32
  %28 = or i32 %.038, %27
  %29 = icmp eq i8 %24, 43
  %30 = zext i1 %29 to i32
  %31 = or i32 %.037, %30
  %32 = icmp eq i8 %24, 44
  %33 = zext i1 %32 to i32
  %34 = or i32 %.036, %33
  %35 = getelementptr inbounds nuw i8, ptr %.1.pn, i64 2
  store i8 0, ptr %.2, align 1
  br label %4

.loopexit.sink.split:                             ; preds = %Io_ReadDsdFindEnd.exit, %.critedge2, %.preheader
  %str.2.sink = phi ptr [ @str, %.preheader ], [ @str.1, %.critedge2 ], [ @str.2, %Io_ReadDsdFindEnd.exit ]
  %puts50 = tail call i32 @puts(ptr nonnull dereferenceable(1) %str.2.sink)
  br label %.loopexit

.loopexit:                                        ; preds = %Io_ReadDsdFindEnd.exit, %.loopexit.sink.split
  %36 = add nuw nsw i32 %.037, %.038
  %37 = add nuw nsw i32 %36, %.036
  %38 = icmp sgt i32 %37, 1
  br i1 %38, label %39, label %40

39:                                               ; preds = %.loopexit
  %puts51 = tail call i32 @puts(ptr nonnull dereferenceable(1) @str.3)
  br label %42

40:                                               ; preds = %.loopexit
  %41 = trunc i64 %indvars.iv.next to i32
  store i32 %.037, ptr %2, align 4
  br label %42

42:                                               ; preds = %40, %39
  %.039 = phi i32 [ 0, %39 ], [ %41, %40 ]
  ret i32 %.039
}